target datalayout = "e-m:e-p270:32:32-p271:32:32-p272:64:64-i64:64-i128:128-f80:128-n8:16:32:64-S128"
target triple = "x86_64-pc-linux-gnu"

%struct.gmx_sel_lexer_t = type { ptr, %"class.std::__exception_ptr::exception_ptr", i8, ptr, i32, ptr, %"class.std::__cxx11::basic_string", %"struct.gmx::SelectionLocation", ptr, i32, i32, i32, ptr, i8, ptr, i32, i8, i8, i8, i8, ptr }
%"class.std::__exception_ptr::exception_ptr" = type { ptr }
%"class.std::__cxx11::basic_string" = type { %"struct.std::__cxx11::basic_string<char>::_Alloc_hider", i64, %union.anon }
%"struct.std::__cxx11::basic_string<char>::_Alloc_hider" = type { ptr }
%union.anon = type { i64, [8 x i8] }
%"struct.gmx::SelectionLocation" = type { i32, i32 }

; Function Attrs: mustprogress uwtable
define void @_Z23_gmx_sel_lexer_get_textB5cxx11PvRKN3gmx17SelectionLocationE(ptr dead_on_unwind noalias writable sret(%"class.std::__cxx11::basic_string") align 8 %0, ptr noundef %1, ptr noundef nonnull align 4 dereferenceable(8) %2) #0 {
  %4 = alloca ptr, align 8
  %5 = alloca ptr, align 8
  %6 = alloca ptr, align 8
  %7 = alloca ptr, align 8
  %8 = alloca i32, align 4
  %9 = alloca i32, align 4
  store ptr %0, ptr %4, align 8
  store ptr %1, ptr %5, align 8
  store ptr %2, ptr %6, align 8
  %10 = load ptr, ptr %5, align 8
  %11 = call noundef ptr @_Z20_gmx_sel_yyget_extraPv(ptr noundef %10)
  store ptr %11, ptr %7, align 8
  %12 = load ptr, ptr %6, align 8
  %13 = getelementptr inbounds %"struct.gmx::SelectionLocation", ptr %12, i32 0, i32 0
  %14 = load i32, ptr %13, align 4
  store i32 %14, ptr %8, align 4
  %15 = load ptr, ptr %6, align 8
  %16 = getelementptr inbounds %"struct.gmx::SelectionLocation", ptr %15, i32 0, i32 1
  %17 = load i32, ptr %16, align 4
  store i32 %17, ptr %9, align 4
  %18 = load i32, ptr %8, align 4
  %19 = load i32, ptr %9, align 4
  %20 = icmp sge i32 %18, %19
  br i1 %20, label %21, label %22

21:                                               ; preds = %3
  call void @_ZNSt7__cxx1112basic_stringIcSt11char_traitsIcESaIcEEC1Ev(ptr noundef nonnull align 8 dereferenceable(32) %0) #10
  br label %31

22:                                               ; preds = %3
  %23 = load ptr, ptr %7, align 8
  %24 = getelementptr inbounds %struct.gmx_sel_lexer_t, ptr %23, i32 0, i32 6
  %25 = load i32, ptr %8, align 4
  %26 = sext i32 %25 to i64
  %27 = load i32, ptr %9, align 4
  %28 = load i32, ptr %8, align 4
  %29 = sub nsw i32 %27, %28
  %30 = sext i32 %29 to i64
  call void @_ZNKSt7__cxx1112basic_stringIcSt11char_traitsIcESaIcEE6substrEmm(ptr dead_on_unwind writable sret(%"class.std::__cxx11::basic_string") align 8 %0, ptr noundef nonnull align 8 dereferenceable(32) %24, i64 noundef %26, i64 noundef %30)
  br label %31

31:                                               ; preds = %22, %21
  ret void
}