; Function Attrs: mustprogress uwtable
define void @_Z23_gmx_sel_lexer_get_textB5cxx11PvRKN3gmx17SelectionLocationE(ptr dead_on_unwind noalias writable sret(%"class.std::__cxx11::basic_string") align 8 %0, ptr noundef %1, ptr nocapture noundef nonnull readonly align 4 dereferenceable(8) %2) local_unnamed_addr #0 {
  %4 = tail call noundef ptr @_Z20_gmx_sel_yyget_extraPv(ptr noundef %1)
  %5 = load i32, ptr %2, align 4
  %6 = getelementptr inbounds i8, ptr %2, i64 4
  %7 = load i32, ptr %6, align 4
  %.not = icmp slt i32 %5, %7
  br i1 %.not, label %9, label %8

8:                                                ; preds = %3
  tail call void @_ZNSt7__cxx1112basic_stringIcSt11char_traitsIcESaIcEEC1Ev(ptr noundef nonnull align 8 dereferenceable(32) %0) #13
  br label %14

9:                                                ; preds = %3
  %10 = getelementptr inbounds i8, ptr %4, i64 48
  %11 = sext i32 %5 to i64
  %12 = sub nsw i32 %7, %5
  %13 = sext i32 %12 to i64
  tail call void @_ZNKSt7__cxx1112basic_stringIcSt11char_traitsIcESaIcEE6substrEmm(ptr dead_on_unwind writable sret(%"class.std::__cxx11::basic_string") align 8 %0, ptr noundef nonnull align 8 dereferenceable(32) %10, i64 noundef %11, i64 noundef %13)
  br label %14

14:                                               ; preds = %9, %8
  ret void
}